target datalayout = "e-m:e-p270:32:32-p271:32:32-p272:64:64-i64:64-i128:128-f80:128-n8:16:32:64-S128"
target triple = "x86_64-pc-linux-gnu"

@H5B_init_g = global i8 0, align 1
@H5_libterm_g = external global i8, align 1
@.str.3 = private unnamed_addr constant [97 x i8] c"generated/home/dtcxzyw/WorkSpace/Projects/compilers/llvm-opt-benchmark/bench/hdf5/hdf5/src/H5B.c\00", align 1
@H5E_BTREE_g = external global i64, align 8
@__func__.H5B_iterate = private unnamed_addr constant [12 x i8] c"H5B_iterate\00", align 1
@H5E_BADITER_g = external global i64, align 8
@.str.24 = private unnamed_addr constant [24 x i8] c"B-tree iteration failed\00", align 1

; Function Attrs: nounwind uwtable
define i32 @H5B_iterate(ptr noundef %0, ptr noundef %1, i64 noundef %2, ptr noundef %3, ptr noundef %4) #0 {
  %6 = alloca ptr, align 8
  %7 = alloca ptr, align 8
  %8 = alloca i64, align 8
  %9 = alloca ptr, align 8
  %10 = alloca ptr, align 8
  %11 = alloca i32, align 4
  store ptr %0, ptr %6, align 8, !tbaa !3
  store ptr %1, ptr %7, align 8, !tbaa !8
  store i64 %2, ptr %8, align 8, !tbaa !23
  store ptr %3, ptr %9, align 8, !tbaa !10
  store ptr %4, ptr %10, align 8, !tbaa !10
  call void @llvm.lifetime.start.p0(i64 4, ptr %11) #6
  store i32 -1, ptr %11, align 4, !tbaa !17
  %12 = load i8, ptr @H5B_init_g, align 1, !tbaa !19, !range !21, !noundef !22
  %13 = trunc i8 %12 to i1
  br i1 %13, label %18, label %14

14:                                               ; preds = %5
  %15 = load i8, ptr @H5_libterm_g, align 1, !tbaa !19, !range !21, !noundef !22
  %16 = trunc i8 %15 to i1
  %17 = xor i1 %16, true
  br label %18

18:                                               ; preds = %14, %5
  %19 = phi i1 [ false, %5 ], [ %17, %14 ]
  %20 = xor i1 %19, true
  %21 = xor i1 %20, true
  %22 = zext i1 %21 to i32
  %23 = sext i32 %22 to i64
  %24 = call i64 @llvm.expect.i64(i64 %23, i64 0)
  %25 = icmp ne i64 %24, 0
  br i1 %25, label %26, label %27

26:                                               ; preds = %18
  store i8 1, ptr @H5B_init_g, align 1, !tbaa !19
  br label %27

27:                                               ; preds = %26, %18
  %28 = load i8, ptr @H5B_init_g, align 1, !tbaa !19, !range !21, !noundef !22
  %29 = trunc i8 %28 to i1
  br i1 %29, label %34, label %30

30:                                               ; preds = %27
  %31 = load i8, ptr @H5_libterm_g, align 1, !tbaa !19, !range !21, !noundef !22
  %32 = trunc i8 %31 to i1
  %33 = xor i1 %32, true
  br label %34

34:                                               ; preds = %30, %27
  %35 = phi i1 [ true, %27 ], [ %33, %30 ]
  %36 = xor i1 %35, true
  %37 = xor i1 %36, true
  %38 = zext i1 %37 to i32
  %39 = sext i32 %38 to i64
  %40 = call i64 @llvm.expect.i64(i64 %39, i64 1)
  %41 = icmp ne i64 %40, 0
  br i1 %41, label %42, label %58

42:                                               ; preds = %34
  %43 = load ptr, ptr %6, align 8, !tbaa !3
  %44 = load ptr, ptr %7, align 8, !tbaa !8
  %45 = load i64, ptr %8, align 8, !tbaa !23
  %46 = load ptr, ptr %9, align 8, !tbaa !10
  %47 = load ptr, ptr %10, align 8, !tbaa !10
  %48 = call i32 @H5B__iterate_helper(ptr noundef %43, ptr noundef %44, i64 noundef %45, i32 noundef -1, ptr noundef %46, ptr noundef %47)
  store i32 %48, ptr %11, align 4, !tbaa !17
  %49 = icmp slt i32 %48, 0
  br i1 %49, label %50, label %57

50:                                               ; preds = %42
  br label %51

51:                                               ; preds = %50
  %52 = load i64, ptr @H5E_BTREE_g, align 8, !tbaa !23
  %53 = load i64, ptr @H5E_BADITER_g, align 8, !tbaa !23
  %54 = call i32 (ptr, ptr, i32, i64, i64, ptr, ...) @H5E_printf_stack(ptr noundef @.str.3, ptr noundef @__func__.H5B_iterate, i32 noundef 1135, i64 noundef %52, i64 noundef %53, ptr noundef @.str.24)
  br label %55

55:                                               ; preds = %51
  br label %56

56:                                               ; preds = %55
  br label %57

57:                                               ; preds = %56, %42
  br label %58

58:                                               ; preds = %57, %34
  %59 = load i32, ptr %11, align 4, !tbaa !17
  call void @llvm.lifetime.end.p0(i64 4, ptr %11) #6
  ret i32 %59
}