; Function Attrs: nounwind uwtable
define i32 @H5B_iterate(ptr noundef %0, ptr noundef %1, i64 noundef %2, ptr noundef readonly captures(none) %3, ptr noundef %4) local_unnamed_addr #0 {
  %6 = load i8, ptr @H5B_init_g, align 1, !tbaa !3, !range !7, !noundef !8
  %7 = trunc nuw i8 %6 to i1
  %8 = load i8, ptr @H5_libterm_g, align 1, !range !7
  %9 = trunc nuw i8 %8 to i1
  %10 = select i1 %7, i1 true, i1 %9
  br i1 %10, label %11, label %.thread, !prof !9

.thread:                                          ; preds = %5
  store i8 1, ptr @H5B_init_g, align 1, !tbaa !3
  br label %14

11:                                               ; preds = %5
  %12 = xor i1 %9, true
  %13 = select i1 %7, i1 true, i1 %12
  br i1 %13, label %14, label %21, !prof !10

14:                                               ; preds = %.thread, %11
  %15 = tail call fastcc i32 @H5B__iterate_helper(ptr noundef %0, ptr noundef %1, i64 noundef %2, i32 noundef -1, ptr noundef %3, ptr noundef %4)
  %16 = icmp slt i32 %15, 0
  br i1 %16, label %17, label %21

17:                                               ; preds = %14
  %18 = load i64, ptr @H5E_BTREE_g, align 8, !tbaa !29
  %19 = load i64, ptr @H5E_BADITER_g, align 8, !tbaa !29
  %20 = tail call i32 (ptr, ptr, i32, i64, i64, ptr, ...) @H5E_printf_stack(ptr noundef nonnull @.str.3, ptr noundef nonnull @__func__.H5B_iterate, i32 noundef 1135, i64 noundef %18, i64 noundef %19, ptr noundef nonnull @.str.24) #6
  br label %21

21:                                               ; preds = %14, %17, %11
  %.0 = phi i32 [ %15, %17 ], [ %15, %14 ], [ -1, %11 ]
  ret i32 %.0
}